; Function Attrs: mustprogress uwtable
define hidden noundef zeroext i1 @_ZNK4cvc58internal8Sequence10isRepeatedEv(ptr noundef nonnull readonly align 8 captures(none) dereferenceable(32) %0) local_unnamed_addr #3 align 2 personality ptr @__gxx_personality_v0 {
  %2 = getelementptr inbounds nuw i8, ptr %0, i64 8
  %3 = getelementptr inbounds nuw i8, ptr %0, i64 16
  %4 = load ptr, ptr %3, align 8, !tbaa !13
  %5 = load ptr, ptr %2, align 8, !tbaa !16
  %6 = ptrtoint ptr %4 to i64
  %7 = ptrtoint ptr %5 to i64
  %8 = sub i64 %6, %7
  %9 = icmp ugt i64 %8, 8
  br i1 %9, label %10, label %48

10:                                               ; preds = %1
  %11 = load ptr, ptr %5, align 8, !tbaa !19
  %12 = load i64, ptr %11, align 8
  %13 = lshr i64 %12, 40
  %14 = trunc nuw nsw i64 %13 to i32
  %15 = and i32 %14, 1048575
  %16 = icmp samesign ult i32 %15, 1048574
  br i1 %16, label %17, label %22, !prof !9

17:                                               ; preds = %10
  %18 = add i64 %12, 1099511627776
  %19 = and i64 %18, 1152920405095219200
  %20 = and i64 %12, -1152920405095219201
  %21 = or disjoint i64 %19, %20
  store i64 %21, ptr %11, align 8
  br label %_ZN4cvc58internal12NodeTemplateILb1EEC2ERKS2_.exit

22:                                               ; preds = %10
  %23 = icmp eq i32 %15, 1048574
  br i1 %23, label %24, label %_ZN4cvc58internal12NodeTemplateILb1EEC2ERKS2_.exit, !prof !10

24:                                               ; preds = %22
  %25 = or i64 %12, 1152920405095219200
  store i64 %25, ptr %11, align 8
  tail call void @_ZN4cvc58internal4expr9NodeValue20markRefCountMaxedOutEv(ptr noundef nonnull align 8 dereferenceable(24) %11)
  br label %_ZN4cvc58internal12NodeTemplateILb1EEC2ERKS2_.exit

_ZN4cvc58internal12NodeTemplateILb1EEC2ERKS2_.exit: ; preds = %17, %22, %24
  %26 = load ptr, ptr %3, align 8, !tbaa !13
  %27 = load ptr, ptr %2, align 8, !tbaa !16
  %28 = ptrtoint ptr %26 to i64
  %29 = ptrtoint ptr %27 to i64
  %30 = sub i64 %28, %29
  %31 = and i64 %30, 34359738352
  %.not.not12.not = icmp eq i64 %31, 0
  br i1 %.not.not12.not, label %._crit_edge, label %.lr.ph

.lr.ph:                                           ; preds = %_ZN4cvc58internal12NodeTemplateILb1EEC2ERKS2_.exit
  %32 = lshr exact i64 %30, 3
  %wide.trip.count = and i64 %32, 4294967295
  br label %33

33:                                               ; preds = %33, %.lr.ph
  %indvars.iv = phi i64 [ 1, %.lr.ph ], [ %indvars.iv.next, %33 ]
  %34 = getelementptr inbounds nuw %"class.cvc5::internal::NodeTemplate", ptr %27, i64 %indvars.iv
  %35 = load ptr, ptr %34, align 8, !tbaa !19
  %.not11.not = icmp ne ptr %11, %35
  %indvars.iv.next = add nuw nsw i64 %indvars.iv, 1
  %exitcond.not = icmp eq i64 %indvars.iv.next, %wide.trip.count
  %or.cond = select i1 %.not11.not, i1 true, i1 %exitcond.not
  br i1 %or.cond, label %._crit_edge, label %33, !llvm.loop !37

._crit_edge:                                      ; preds = %33, %_ZN4cvc58internal12NodeTemplateILb1EEC2ERKS2_.exit
  %.not.not.lcssa = phi i1 [ false, %_ZN4cvc58internal12NodeTemplateILb1EEC2ERKS2_.exit ], [ %.not11.not, %33 ]
  %36 = load i64, ptr %11, align 8
  %37 = and i64 %36, 1152920405095219200
  %.not.i.i = icmp eq i64 %37, 1152920405095219200
  br i1 %.not.i.i, label %_ZN4cvc58internal12NodeTemplateILb1EED2Ev.exit, label %38, !prof !10

38:                                               ; preds = %._crit_edge
  %39 = add i64 %36, 1152920405095219200
  %40 = and i64 %39, 1152920405095219200
  %41 = and i64 %36, -1152920405095219201
  %42 = or disjoint i64 %40, %41
  store i64 %42, ptr %11, align 8
  %43 = icmp eq i64 %40, 0
  br i1 %43, label %44, label %_ZN4cvc58internal12NodeTemplateILb1EED2Ev.exit, !prof !10

44:                                               ; preds = %38
  invoke void @_ZN4cvc58internal4expr9NodeValue15markForDeletionEv(ptr noundef nonnull align 8 dereferenceable(24) %11)
          to label %_ZN4cvc58internal12NodeTemplateILb1EED2Ev.exit unwind label %45

45:                                               ; preds = %44
  %46 = landingpad { ptr, i32 }
          catch ptr null
  %47 = extractvalue { ptr, i32 } %46, 0
  tail call void @__clang_call_terminate(ptr %47) #24
  unreachable

_ZN4cvc58internal12NodeTemplateILb1EED2Ev.exit:   ; preds = %._crit_edge, %38, %44
  br i1 %.not.not.lcssa, label %49, label %48

48:                                               ; preds = %_ZN4cvc58internal12NodeTemplateILb1EED2Ev.exit, %1
  br label %49

49:                                               ; preds = %_ZN4cvc58internal12NodeTemplateILb1EED2Ev.exit, %48
  %.1 = phi i1 [ false, %_ZN4cvc58internal12NodeTemplateILb1EED2Ev.exit ], [ true, %48 ]
  ret i1 %.1
}